; Function Attrs: nounwind uwtable
define internal range(i32 0, 3) i32 @fold_fload_tab_tnew_asize(ptr noundef %0) #0 {
  %2 = getelementptr inbounds nuw i8, ptr %0, i64 168
  %3 = load i32, ptr %2, align 8, !tbaa !4
  %4 = and i32 %3, 65536
  %.not = icmp eq i32 %4, 0
  br i1 %.not, label %14, label %5, !prof !33

5:                                                ; preds = %1
  %6 = getelementptr inbounds nuw i8, ptr %0, i64 184
  %7 = load i16, ptr %6, align 8, !tbaa !28
  %8 = zext i16 %7 to i32
  %9 = tail call i32 @lj_opt_fwd_tptr(ptr noundef nonnull %0, i32 noundef %8) #12
  %.not5 = icmp eq i32 %9, 0
  br i1 %.not5, label %14, label %10

10:                                               ; preds = %5
  %11 = getelementptr inbounds nuw i8, ptr %0, i64 192
  %12 = load i16, ptr %11, align 8, !tbaa !28
  %13 = zext i16 %12 to i32
  store i32 %13, ptr %6, align 8, !tbaa !28
  br label %14

14:                                               ; preds = %1, %5, %10
  %.0 = phi i32 [ 2, %10 ], [ 0, %5 ], [ 0, %1 ]
  ret i32 %.0
}